target datalayout = "e-m:e-p270:32:32-p271:32:32-p272:64:64-i64:64-i128:128-f80:128-n8:16:32:64-S128"
target triple = "x86_64-unknown-linux-gnu"

%"class.doctest::String" = type { %union.anon }
%union.anon = type { %"struct.doctest::String::view", [8 x i8] }
%"struct.doctest::String::view" = type { ptr, i32, i32 }
%"class.doctest::detail::ContextScope" = type { %"struct.doctest::detail::ContextScopeBase.base", %class.anon, [6 x i8] }
%"struct.doctest::detail::ContextScopeBase.base" = type <{ %"struct.doctest::IContextScope", i8 }>
%"struct.doctest::IContextScope" = type { ptr }
%class.anon = type { i8 }
%"struct.doctest::detail::MessageBuilder" = type <{ %"struct.doctest::MessageData", ptr, i8, [7 x i8] }>
%"struct.doctest::MessageData" = type { %"class.doctest::String", ptr, i32, i32 }

@.str.2 = private unnamed_addr constant [135 x i8] c"generated/home/dtcxzyw/WorkSpace/Projects/compilers/llvm-opt-benchmark/bench/nlohmann_json/json/tests/src/make_test_data_available.hpp\00", align 1

; Function Attrs: mustprogress uwtable
define linkonce_odr dso_local noundef nonnull align 8 dereferenceable(49) ptr @_ZN7doctest6detail14MessageBuildermlIA290_cEERS1_RKT_(ptr noundef nonnull align 8 dereferenceable(49) %this, ptr noundef nonnull align 1 dereferenceable(290) %in) #4 comdat align 2 {
entry:
  %this.addr = alloca ptr, align 8
  %in.addr = alloca ptr, align 8
  store ptr %this, ptr %this.addr, align 8
  store ptr %in, ptr %in.addr, align 8
  %this1 = load ptr, ptr %this.addr, align 8
  %0 = load ptr, ptr %in.addr, align 8
  %call = call noundef nonnull align 8 dereferenceable(49) ptr @_ZN7doctest6detail14MessageBuildercmIA290_cEERS1_RKT_(ptr noundef nonnull align 8 dereferenceable(49) %this1, ptr noundef nonnull align 1 dereferenceable(290) %0)
  ret ptr %call
}

; Function Attrs: mustprogress uwtable
define internal void @"_ZZN5utilsL19DOCTEST_ANON_FUNC_2EvENK3$_0clEPSo"(ptr noundef nonnull align 1 dereferenceable(1) %this, ptr noundef %DOCTEST_CAPTURE_OTHER_4) #4 align 2 personality ptr @__gxx_personality_v0 {
entry:
  %this.addr = alloca ptr, align 8
  %DOCTEST_CAPTURE_OTHER_4.addr = alloca ptr, align 8
  %DOCTEST_CAPTURE_5 = alloca %"struct.doctest::detail::MessageBuilder", align 8
  %exn.slot = alloca ptr, align 8
  %ehselector.slot = alloca i32, align 4
  store ptr %this, ptr %this.addr, align 8
  store ptr %DOCTEST_CAPTURE_OTHER_4, ptr %DOCTEST_CAPTURE_OTHER_4.addr, align 8
  call void @_ZN7doctest6detail14MessageBuilderC1EPKciNS_10assertType4EnumE(ptr noundef nonnull align 8 dereferenceable(49) %DOCTEST_CAPTURE_5, ptr noundef @.str.2, i32 noundef 27, i32 noundef 1)
  %0 = load ptr, ptr %DOCTEST_CAPTURE_OTHER_4.addr, align 8
  %m_stream = getelementptr inbounds %"struct.doctest::detail::MessageBuilder", ptr %DOCTEST_CAPTURE_5, i32 0, i32 1
  store ptr %0, ptr %m_stream, align 8
  %call = invoke noundef nonnull align 8 dereferenceable(49) ptr @_ZN7doctest6detail14MessageBuildermlIA290_cEERS1_RKT_(ptr noundef nonnull align 8 dereferenceable(49) %DOCTEST_CAPTURE_5, ptr noundef nonnull align 1 dereferenceable(290) @.str.10)
          to label %invoke.cont unwind label %lpad

invoke.cont:                                      ; preds = %entry
  call void @_ZN7doctest6detail14MessageBuilderD1Ev(ptr noundef nonnull align 8 dereferenceable(49) %DOCTEST_CAPTURE_5) #19
  ret void

lpad:                                             ; preds = %entry
  %1 = landingpad { ptr, i32 }
          cleanup
  %2 = extractvalue { ptr, i32 } %1, 0
  store ptr %2, ptr %exn.slot, align 8
  %3 = extractvalue { ptr, i32 } %1, 1
  store i32 %3, ptr %ehselector.slot, align 4
  call void @_ZN7doctest6detail14MessageBuilderD1Ev(ptr noundef nonnull align 8 dereferenceable(49) %DOCTEST_CAPTURE_5) #19
  br label %eh.resume

eh.resume:                                        ; preds = %lpad
  %exn = load ptr, ptr %exn.slot, align 8
  %sel = load i32, ptr %ehselector.slot, align 4
  %lpad.val = insertvalue { ptr, i32 } poison, ptr %exn, 0
  %lpad.val2 = insertvalue { ptr, i32 } %lpad.val, i32 %sel, 1
  resume { ptr, i32 } %lpad.val2
}

; Function Attrs: mustprogress uwtable
define internal void @"_ZNK7doctest6detail12ContextScopeIZN5utilsL19DOCTEST_ANON_FUNC_2EvE3$_0E9stringifyEPSo"(ptr noundef nonnull align 8 dereferenceable(10) %this, ptr noundef %s) unnamed_addr #4 align 2 {
entry:
  %this.addr = alloca ptr, align 8
  %s.addr = alloca ptr, align 8
  store ptr %this, ptr %this.addr, align 8
  store ptr %s, ptr %s.addr, align 8
  %this1 = load ptr, ptr %this.addr, align 8
  %lambda_ = getelementptr inbounds %"class.doctest::detail::ContextScope", ptr %this1, i32 0, i32 1
  %0 = load ptr, ptr %s.addr, align 8
  call void @"_ZZN5utilsL19DOCTEST_ANON_FUNC_2EvENK3$_0clEPSo"(ptr noundef nonnull align 1 dereferenceable(1) %lambda_, ptr noundef %0)
  ret void
}