; Function Attrs: mustprogress uwtable
define internal void @"_ZNK7doctest6detail12ContextScopeIZN5utilsL19DOCTEST_ANON_FUNC_2EvE3$_0E9stringifyEPSo"(ptr nocapture nonnull readnone align 8 %this, ptr noundef %s) unnamed_addr #2 align 2 personality ptr @__gxx_personality_v0 {
entry:
  %DOCTEST_CAPTURE_5.i = alloca %"struct.doctest::detail::MessageBuilder", align 8
  call void @llvm.lifetime.start.p0(i64 56, ptr nonnull %DOCTEST_CAPTURE_5.i)
  call void @_ZN7doctest6detail14MessageBuilderC1EPKciNS_10assertType4EnumE(ptr noundef nonnull align 8 dereferenceable(49) %DOCTEST_CAPTURE_5.i, ptr noundef nonnull @.str.2, i32 noundef 27, i32 noundef 1)
  %m_stream.i = getelementptr inbounds i8, ptr %DOCTEST_CAPTURE_5.i, i64 40
  store ptr %s, ptr %m_stream.i, align 8
  %call.i1.i = invoke noundef nonnull align 8 dereferenceable(49) ptr @_ZN7doctest6detail14MessageBuildercmIA290_cEERS1_RKT_(ptr noundef nonnull align 8 dereferenceable(49) %DOCTEST_CAPTURE_5.i, ptr noundef nonnull align 1 dereferenceable(290) @.str.10)
          to label %"_ZZN5utilsL19DOCTEST_ANON_FUNC_2EvENK3$_0clEPSo.exit" unwind label %lpad.i

lpad.i:                                           ; preds = %entry
  %0 = landingpad { ptr, i32 }
          cleanup
  call void @_ZN7doctest6detail14MessageBuilderD1Ev(ptr noundef nonnull align 8 dereferenceable(49) %DOCTEST_CAPTURE_5.i) #21
  resume { ptr, i32 } %0

"_ZZN5utilsL19DOCTEST_ANON_FUNC_2EvENK3$_0clEPSo.exit": ; preds = %entry
  call void @_ZN7doctest6detail14MessageBuilderD1Ev(ptr noundef nonnull align 8 dereferenceable(49) %DOCTEST_CAPTURE_5.i) #21
  call void @llvm.lifetime.end.p0(i64 56, ptr nonnull %DOCTEST_CAPTURE_5.i)
  ret void
}